; Function Attrs: mustprogress uwtable
define hidden void @_ZNK1q6ematch18collect_statisticsER10statistics(ptr noundef nonnull align 8 dereferenceable(2680) %0, ptr noundef nonnull align 8 dereferenceable(16) %1) local_unnamed_addr #3 align 2 {
  %3 = getelementptr inbounds nuw i8, ptr %0, i64 328
  tail call void @_ZNK1q5queue18collect_statisticsER10statistics(ptr noundef nonnull align 8 dereferenceable(912) %3, ptr noundef nonnull align 8 dereferenceable(16) %1)
  %4 = getelementptr inbounds nuw i8, ptr %0, i64 2356
  %5 = load i32, ptr %4, align 4, !tbaa !703
  tail call void @_ZN10statistics6updateEPKcj(ptr noundef nonnull align 8 dereferenceable(16) %1, ptr noundef nonnull @.str.8, i32 noundef %5)
  %6 = getelementptr inbounds nuw i8, ptr %0, i64 2348
  %7 = load i32, ptr %6, align 4, !tbaa !711
  tail call void @_ZN10statistics6updateEPKcj(ptr noundef nonnull align 8 dereferenceable(16) %1, ptr noundef nonnull @.str.9, i32 noundef %7)
  %8 = getelementptr inbounds nuw i8, ptr %0, i64 2352
  %9 = load i32, ptr %8, align 8, !tbaa !710
  tail call void @_ZN10statistics6updateEPKcj(ptr noundef nonnull align 8 dereferenceable(16) %1, ptr noundef nonnull @.str.10, i32 noundef %9)
  %10 = getelementptr inbounds nuw i8, ptr %0, i64 2360
  %11 = load i32, ptr %10, align 8, !tbaa !701
  tail call void @_ZN10statistics6updateEPKcj(ptr noundef nonnull align 8 dereferenceable(16) %1, ptr noundef nonnull @.str.11, i32 noundef %11)
  ret void
}